; ModuleID = '51/210.c'
source_filename = "51/210.c"
target datalayout = "e-m:e-p270:32:32-p271:32:32-p272:64:64-i64:64-f80:128-n8:16:32:64-S128"
target triple = "x86_64-pc-linux-gnu"

@.str = private unnamed_addr constant [3 x i8] c"%d\00", align 1
@.str.1 = private unnamed_addr constant [3 x i8] c"%s\00", align 1
@.str.2 = private unnamed_addr constant [4 x i8] c"%d\0A\00", align 1
@.str.3 = private unnamed_addr constant [3 x i8] c"NO\00", align 1

; Function Attrs: noinline nounwind uwtable
define dso_local i32 @main() #0 {
  %1 = alloca i32, align 4
  %2 = alloca i32, align 4
  %3 = alloca [600 x i32], align 16
  %4 = alloca i32, align 4
  %5 = alloca i32, align 4
  %6 = alloca [600 x i8], align 16
  %7 = alloca i32, align 4
  %8 = alloca i32, align 4
  %9 = alloca i32, align 4
  %10 = alloca [600 x [6 x i8]], align 16
  store i32 0, i32* %1, align 4
  %11 = bitcast [600 x i32]* %3 to i8*
  call void @llvm.memset.p0i8.i64(i8* align 16 %11, i8 0, i64 2400, i1 false)
  store i32 0, i32* %5, align 4
  %12 = bitcast [600 x i8]* %6 to i8*
  call void @llvm.memset.p0i8.i64(i8* align 16 %12, i8 0, i64 600, i1 false)
  %13 = call i32 (i8*, ...) @__isoc99_scanf(i8* getelementptr inbounds ([3 x i8], [3 x i8]* @.str, i64 0, i64 0), i32* %2)
  %14 = getelementptr inbounds [600 x i8], [600 x i8]* %6, i64 0, i64 0
  %15 = call i32 (i8*, ...) @__isoc99_scanf(i8* getelementptr inbounds ([3 x i8], [3 x i8]* @.str.1, i64 0, i64 0), i8* %14)
  store i32 0, i32* %9, align 4
  %16 = bitcast [600 x [6 x i8]]* %10 to i8*
  call void @llvm.memset.p0i8.i64(i8* align 16 %16, i8 0, i64 3600, i1 false)
  store i32 0, i32* %7, align 4
  br label %17

17:                                               ; preds = %45, %0
  %18 = load i32, i32* %7, align 4
  %19 = sext i32 %18 to i64
  %20 = getelementptr inbounds [600 x i8], [600 x i8]* %6, i64 0, i64 0
  %21 = call i64 @strlen(i8* %20) #4
  %22 = icmp ult i64 %19, %21
  br i1 %22, label %23, label %48

23:                                               ; preds = %17
  store i32 0, i32* %8, align 4
  br label %24

24:                                               ; preds = %41, %23
  %25 = load i32, i32* %8, align 4
  %26 = load i32, i32* %2, align 4
  %27 = icmp slt i32 %25, %26
  br i1 %27, label %28, label %44

28:                                               ; preds = %24
  %29 = load i32, i32* %7, align 4
  %30 = load i32, i32* %8, align 4
  %31 = add nsw i32 %29, %30
  %32 = sext i32 %31 to i64
  %33 = getelementptr inbounds [600 x i8], [600 x i8]* %6, i64 0, i64 %32
  %34 = load i8, i8* %33, align 1
  %35 = load i32, i32* %7, align 4
  %36 = sext i32 %35 to i64
  %37 = getelementptr inbounds [600 x [6 x i8]], [600 x [6 x i8]]* %10, i64 0, i64 %36
  %38 = load i32, i32* %8, align 4
  %39 = sext i32 %38 to i64
  %40 = getelementptr inbounds [6 x i8], [6 x i8]* %37, i64 0, i64 %39
  store i8 %34, i8* %40, align 1
  br label %41

41:                                               ; preds = %28
  %42 = load i32, i32* %8, align 4
  %43 = add nsw i32 %42, 1
  store i32 %43, i32* %8, align 4
  br label %24

44:                                               ; preds = %24
  br label %45

45:                                               ; preds = %44
  %46 = load i32, i32* %7, align 4
  %47 = add nsw i32 %46, 1
  store i32 %47, i32* %7, align 4
  br label %17

48:                                               ; preds = %17
  store i32 0, i32* %7, align 4
  br label %49

49:                                               ; preds = %87, %48
  %50 = load i32, i32* %7, align 4
  %51 = sext i32 %50 to i64
  %52 = getelementptr inbounds [600 x i8], [600 x i8]* %6, i64 0, i64 0
  %53 = call i64 @strlen(i8* %52) #4
  %54 = sub i64 %53, 1
  %55 = icmp ult i64 %51, %54
  br i1 %55, label %56, label %90

56:                                               ; preds = %49
  %57 = load i32, i32* %7, align 4
  %58 = add nsw i32 %57, 1
  store i32 %58, i32* %8, align 4
  br label %59

59:                                               ; preds = %83, %56
  %60 = load i32, i32* %8, align 4
  %61 = sext i32 %60 to i64
  %62 = getelementptr inbounds [600 x i8], [600 x i8]* %6, i64 0, i64 0
  %63 = call i64 @strlen(i8* %62) #4
  %64 = icmp ult i64 %61, %63
  br i1 %64, label %65, label %86

65:                                               ; preds = %59
  %66 = load i32, i32* %7, align 4
  %67 = sext i32 %66 to i64
  %68 = getelementptr inbounds [600 x [6 x i8]], [600 x [6 x i8]]* %10, i64 0, i64 %67
  %69 = getelementptr inbounds [6 x i8], [6 x i8]* %68, i64 0, i64 0
  %70 = load i32, i32* %8, align 4
  %71 = sext i32 %70 to i64
  %72 = getelementptr inbounds [600 x [6 x i8]], [600 x [6 x i8]]* %10, i64 0, i64 %71
  %73 = getelementptr inbounds [6 x i8], [6 x i8]* %72, i64 0, i64 0
  %74 = call i32 @strcmp(i8* %69, i8* %73) #4
  %75 = icmp eq i32 %74, 0
  br i1 %75, label %76, label %82

76:                                               ; preds = %65
  %77 = load i32, i32* %7, align 4
  %78 = sext i32 %77 to i64
  %79 = getelementptr inbounds [600 x i32], [600 x i32]* %3, i64 0, i64 %78
  %80 = load i32, i32* %79, align 4
  %81 = add nsw i32 %80, 1
  store i32 %81, i32* %79, align 4
  br label %82

82:                                               ; preds = %76, %65
  br label %83

83:                                               ; preds = %82
  %84 = load i32, i32* %8, align 4
  %85 = add nsw i32 %84, 1
  store i32 %85, i32* %8, align 4
  br label %59

86:                                               ; preds = %59
  br label %87

87:                                               ; preds = %86
  %88 = load i32, i32* %7, align 4
  %89 = add nsw i32 %88, 1
  store i32 %89, i32* %7, align 4
  br label %49

90:                                               ; preds = %49
  store i32 200, i32* %4, align 4
  br label %91

91:                                               ; preds = %134, %90
  %92 = load i32, i32* %4, align 4
  %93 = icmp sgt i32 %92, 0
  br i1 %93, label %94, label %137

94:                                               ; preds = %91
  store i32 0, i32* %7, align 4
  br label %95

95:                                               ; preds = %126, %94
  %96 = load i32, i32* %7, align 4
  %97 = sext i32 %96 to i64
  %98 = getelementptr inbounds [600 x i8], [600 x i8]* %6, i64 0, i64 0
  %99 = call i64 @strlen(i8* %98) #4
  %100 = icmp ult i64 %97, %99
  br i1 %100, label %101, label %129

101:                                              ; preds = %95
  %102 = load i32, i32* %7, align 4
  %103 = sext i32 %102 to i64
  %104 = getelementptr inbounds [600 x i32], [600 x i32]* %3, i64 0, i64 %103
  %105 = load i32, i32* %104, align 4
  %106 = load i32, i32* %4, align 4
  %107 = icmp eq i32 %105, %106
  br i1 %107, label %108, label %125

108:                                              ; preds = %101
  %109 = load i32, i32* %9, align 4
  %110 = icmp ne i32 %109, 0
  br i1 %110, label %119, label %111

111:                                              ; preds = %108
  %112 = load i32, i32* %4, align 4
  %113 = add nsw i32 %112, 1
  %114 = call i32 (i8*, ...) @printf(i8* getelementptr inbounds ([4 x i8], [4 x i8]* @.str.2, i64 0, i64 0), i32 %113)
  %115 = load i32, i32* %9, align 4
  %116 = add nsw i32 %115, 1
  store i32 %116, i32* %9, align 4
  %117 = load i32, i32* %5, align 4
  %118 = add nsw i32 %117, 1
  store i32 %118, i32* %5, align 4
  br label %119

119:                                              ; preds = %111, %108
  %120 = load i32, i32* %7, align 4
  %121 = sext i32 %120 to i64
  %122 = getelementptr inbounds [600 x [6 x i8]], [600 x [6 x i8]]* %10, i64 0, i64 %121
  %123 = getelementptr inbounds [6 x i8], [6 x i8]* %122, i64 0, i64 0
  %124 = call i32 @puts(i8* %123)
  br label %125

125:                                              ; preds = %119, %101
  br label %126

126:                                              ; preds = %125
  %127 = load i32, i32* %7, align 4
  %128 = add nsw i32 %127, 1
  store i32 %128, i32* %7, align 4
  br label %95

129:                                              ; preds = %95
  %130 = load i32, i32* %5, align 4
  %131 = icmp ne i32 %130, 0
  br i1 %131, label %132, label %133

132:                                              ; preds = %129
  br label %137

133:                                              ; preds = %129
  br label %134

134:                                              ; preds = %133
  %135 = load i32, i32* %4, align 4
  %136 = add nsw i32 %135, -1
  store i32 %136, i32* %4, align 4
  br label %91

137:                                              ; preds = %132, %91
  %138 = load i32, i32* %4, align 4
  %139 = icmp eq i32 %138, 0
  br i1 %139, label %140, label %142

140:                                              ; preds = %137
  %141 = call i32 (i8*, ...) @printf(i8* getelementptr inbounds ([3 x i8], [3 x i8]* @.str.3, i64 0, i64 0))
  br label %142

142:                                              ; preds = %140, %137
  %143 = load i32, i32* %1, align 4
  ret i32 %143
}

; Function Attrs: argmemonly nounwind willreturn
declare void @llvm.memset.p0i8.i64(i8* nocapture writeonly, i8, i64, i1 immarg) #1

declare dso_local i32 @__isoc99_scanf(i8*, ...) #2

; Function Attrs: nounwind readonly
declare dso_local i64 @strlen(i8*) #3

; Function Attrs: nounwind readonly
declare dso_local i32 @strcmp(i8*, i8*) #3

declare dso_local i32 @printf(i8*, ...) #2

declare dso_local i32 @puts(i8*) #2


!llvm.module.flags = !{!0}
!llvm.ident = !{!1}

!0 = !{i32 1, !"wchar_size", i32 4}
!1 = !{!"clang version 10.0.0-4ubuntu1 "}
